; Function Attrs: mustprogress uwtable
define hidden noundef nonnull align 4 dereferenceable(90) ptr @_ZN19OpenColorIO_v2_5dev7CPUInfo8instanceEv() local_unnamed_addr #0 align 2 personality ptr @__gxx_personality_v0 {
  %1 = load atomic i8, ptr @_ZGVZN19OpenColorIO_v2_5dev7CPUInfo8instanceEvE9singleton acquire, align 8
  %2 = icmp eq i8 %1, 0
  br i1 %2, label %3, label %7, !prof !15

3:                                                ; preds = %0
  %4 = tail call i32 @__cxa_guard_acquire(ptr nonnull @_ZGVZN19OpenColorIO_v2_5dev7CPUInfo8instanceEvE9singleton) #4
  %.not = icmp eq i32 %4, 0
  br i1 %.not, label %7, label %5

5:                                                ; preds = %3
  invoke void @_ZN19OpenColorIO_v2_5dev7CPUInfoC2Ev(ptr noundef nonnull align 4 dereferenceable(90) @_ZZN19OpenColorIO_v2_5dev7CPUInfo8instanceEvE9singleton)
          to label %6 unwind label %8

6:                                                ; preds = %5
  tail call void @__cxa_guard_release(ptr nonnull @_ZGVZN19OpenColorIO_v2_5dev7CPUInfo8instanceEvE9singleton) #4
  br label %7

7:                                                ; preds = %6, %3, %0
  ret ptr @_ZZN19OpenColorIO_v2_5dev7CPUInfo8instanceEvE9singleton

8:                                                ; preds = %5
  %9 = landingpad { ptr, i32 }
          cleanup
  tail call void @__cxa_guard_abort(ptr nonnull @_ZGVZN19OpenColorIO_v2_5dev7CPUInfo8instanceEvE9singleton) #4
  resume { ptr, i32 } %9
}